(lp1
(lp2
I1951
aF50.200000000000003
aF-87
aF127
aI499755
aa(lp3
I1952
aF50.280000000000001
aF-78
aF123.09999999999999
aI564093
aa(lp4
I1953
aF51.740000000000002
aF-76
aF120
aI606373
aa(lp5
I1954
aF51.649999999999999
aF-74
aF120
aI646122
aa(lp6
I1955
aF50.380000000000003
aF-75.5
aF122
aI624368
aa(lp7
I1956
aF49.030000000000001
aF-76
aF119.3
aI642397
aa(lp8
I1957
aF51.600000000000001
aF-101.59999999999999
aF120
aI811241
aa(lp9
I1958
aF51.329999999999998
aF-101.59999999999999
aF120.90000000000001
aI878959
aa(lp10
I1959
aF49.439999999999998
aF-106.40000000000001
aF120
aI850735
aa(lp11
I1960
aF50.579999999999998
aF-106.09999999999999
aF120.2
aI883954
aa.