(lp1
(lp2
I1930
aF49.859999999999999
aF19.899999999999999
aF90
aI7285
aa(lp3
I1931
aF49.609999999999999
aF-4
aF108.3
aI9913
aa(lp4
I1932
aF49.82
aF-18
aF102.40000000000001
aI10931
aa(lp5
I1933
aF44.920000000000002
aF-56
aF110.3
aI18248
aa(lp6
I1934
aF45.350000000000001
aF-53
aF112.3
aI20916
aa(lp7
I1935
aF49.25
aF-56
aF118
aI27357
aa(lp8
I1936
aF47.509999999999998
aF-56
aF117.3
aI51360
aa(lp9
I1937
aF44.560000000000002
aF-56
aF115
aI84913
aa(lp10
I1938
aF50.789999999999999
aF-25.600000000000001
aF106
aI51912
aa(lp11
I1939
aF50.280000000000001
aF-47.899999999999999
aF109.90000000000001
aI65650
aa(lp12
I1940
aF48.07
aF-34.100000000000001
aF110.7
aI90956
aa(lp13
I1941
aF49.960000000000001
aF-42.5
aF115.2
aI111750
aa(lp14
I1942
aF53.609999999999999
aF-63.899999999999999
aF118.2
aI142621
aa(lp15
I1943
aF56.939999999999998
aF-65.900000000000006
aF119.3
aI224853
aa(lp16
I1944
aF59.18
aF-56
aF123.3
aI246069
aa(lp17
I1945
aF59.909999999999997
aF-56.600000000000001
aF121.3
aI262266
aa(lp18
I1946
aF56.640000000000001
aF-71
aF115.3
aI144144
aa(lp19
I1947
aF55.130000000000003
aF-82.5
aF120.2
aI146456
aa(lp20
I1948
aF50.719999999999999
aF-78
aF120.2
aI296249
aa(lp21
I1949
aF50.609999999999999
aF-80
aF120
aI442594
aa(lp22
I1950
aF48.729999999999997
aF-87
aF120
aI491354
aa.