(lp1
(lp2
I1961
aF51.539999999999999
aF-100.5
aF127
aI921989
aa(lp3
I1962
aF51.200000000000003
aF-102.5
aF120.90000000000001
aI941131
aa(lp4
I1963
aF50.780000000000001
aF-107.09999999999999
aF120
aI927917
aa(lp5
I1964
aF51.740000000000002
aF-98
aF120
aI803683
aa(lp6
I1965
aF51.990000000000002
aF-113.09999999999999
aF120
aI633814
aa(lp7
I1966
aF50.979999999999997
aF-103.90000000000001
aF123.09999999999999
aI651765
aa(lp8
I1967
aF51.68
aF-105
aF120
aI654240
aa(lp9
I1968
aF50.259999999999998
aF-112
aF120
aI600678
aa(lp10
I1969
aF40.329999999999998
aF-108.90000000000001
aF117.3
aI884147
aa(lp11
I1970
aF40.920000000000002
aF-103
aF120
aI866865
aa.